target datalayout = "e-m:e-p270:32:32-p271:32:32-p272:64:64-i64:64-i128:128-f80:128-n8:16:32:64-S128"
target triple = "x86_64-unknown-linux-gnu"

%"class.std::vector.8" = type { %"struct.std::_Vector_base.9" }
%"struct.std::_Vector_base.9" = type { %"struct.std::_Vector_base<double, std::allocator<double>>::_Vector_impl" }
%"struct.std::_Vector_base<double, std::allocator<double>>::_Vector_impl" = type { %"struct.std::_Vector_base<double, std::allocator<double>>::_Vector_impl_data" }
%"struct.std::_Vector_base<double, std::allocator<double>>::_Vector_impl_data" = type { ptr, ptr, ptr }
%"class.OpenColorIO_v2_4dev::ExponentWithLinearTransformImpl" = type { %"class.OpenColorIO_v2_4dev::ExponentWithLinearTransform", %"class.OpenColorIO_v2_4dev::GammaOpData" }
%"class.OpenColorIO_v2_4dev::ExponentWithLinearTransform" = type { %"class.OpenColorIO_v2_4dev::Transform" }
%"class.OpenColorIO_v2_4dev::Transform" = type { ptr }
%"class.OpenColorIO_v2_4dev::GammaOpData" = type { %"class.OpenColorIO_v2_4dev::OpData", i32, %"class.std::vector.8", %"class.std::vector.8", %"class.std::vector.8", %"class.std::vector.8" }
%"class.OpenColorIO_v2_4dev::OpData" = type { ptr, %"class.std::mutex", %"class.OpenColorIO_v2_4dev::FormatMetadataImpl" }
%"class.std::mutex" = type { %"class.std::__mutex_base" }
%"class.std::__mutex_base" = type { %union.pthread_mutex_t }
%union.pthread_mutex_t = type { %struct.__pthread_mutex_s }
%struct.__pthread_mutex_s = type { i32, i32, i32, i32, i32, i16, i16, %struct.__pthread_internal_list }
%struct.__pthread_internal_list = type { ptr, ptr }
%"class.OpenColorIO_v2_4dev::FormatMetadataImpl" = type { %"class.OpenColorIO_v2_4dev::FormatMetadata", %"class.std::__cxx11::basic_string", %"class.std::__cxx11::basic_string", %"class.std::vector", %"class.std::vector.3" }
%"class.OpenColorIO_v2_4dev::FormatMetadata" = type { ptr }
%"class.std::__cxx11::basic_string" = type { %"struct.std::__cxx11::basic_string<char>::_Alloc_hider", i64, %union.anon }
%"struct.std::__cxx11::basic_string<char>::_Alloc_hider" = type { ptr }
%union.anon = type { i64, [8 x i8] }
%"class.std::vector" = type { %"struct.std::_Vector_base" }
%"struct.std::_Vector_base" = type { %"struct.std::_Vector_base<std::pair<std::__cxx11::basic_string<char>, std::__cxx11::basic_string<char>>, std::allocator<std::pair<std::__cxx11::basic_string<char>, std::__cxx11::basic_string<char>>>>::_Vector_impl" }
%"struct.std::_Vector_base<std::pair<std::__cxx11::basic_string<char>, std::__cxx11::basic_string<char>>, std::allocator<std::pair<std::__cxx11::basic_string<char>, std::__cxx11::basic_string<char>>>>::_Vector_impl" = type { %"struct.std::_Vector_base<std::pair<std::__cxx11::basic_string<char>, std::__cxx11::basic_string<char>>, std::allocator<std::pair<std::__cxx11::basic_string<char>, std::__cxx11::basic_string<char>>>>::_Vector_impl_data" }
%"struct.std::_Vector_base<std::pair<std::__cxx11::basic_string<char>, std::__cxx11::basic_string<char>>, std::allocator<std::pair<std::__cxx11::basic_string<char>, std::__cxx11::basic_string<char>>>>::_Vector_impl_data" = type { ptr, ptr, ptr }
%"class.std::vector.3" = type { %"struct.std::_Vector_base.4" }
%"struct.std::_Vector_base.4" = type { %"struct.std::_Vector_base<OpenColorIO_v2_4dev::FormatMetadataImpl, std::allocator<OpenColorIO_v2_4dev::FormatMetadataImpl>>::_Vector_impl" }
%"struct.std::_Vector_base<OpenColorIO_v2_4dev::FormatMetadataImpl, std::allocator<OpenColorIO_v2_4dev::FormatMetadataImpl>>::_Vector_impl" = type { %"struct.std::_Vector_base<OpenColorIO_v2_4dev::FormatMetadataImpl, std::allocator<OpenColorIO_v2_4dev::FormatMetadataImpl>>::_Vector_impl_data" }
%"struct.std::_Vector_base<OpenColorIO_v2_4dev::FormatMetadataImpl, std::allocator<OpenColorIO_v2_4dev::FormatMetadataImpl>>::_Vector_impl_data" = type { ptr, ptr, ptr }

; Function Attrs: noreturn nounwind uwtable
define linkonce_odr hidden void @__clang_call_terminate(ptr noundef %0) #8 comdat {
  %2 = call ptr @__cxa_begin_catch(ptr %0) #14
  call void @_ZSt9terminatev() #15
  unreachable
}

; Function Attrs: mustprogress nounwind uwtable
define linkonce_odr hidden noundef nonnull align 8 dereferenceable(24) ptr @_ZNK19OpenColorIO_v2_4dev11GammaOpData14getAlphaParamsEv(ptr noundef nonnull align 8 dereferenceable(272) %this) #3 comdat align 2 {
entry:
  %this.addr = alloca ptr, align 8
  store ptr %this, ptr %this.addr, align 8
  %this1 = load ptr, ptr %this.addr, align 8
  %m_alphaParams = getelementptr inbounds %"class.OpenColorIO_v2_4dev::GammaOpData", ptr %this1, i32 0, i32 5
  ret ptr %m_alphaParams
}

; Function Attrs: mustprogress nounwind uwtable
define linkonce_odr hidden noundef nonnull align 8 dereferenceable(24) ptr @_ZNK19OpenColorIO_v2_4dev11GammaOpData13getBlueParamsEv(ptr noundef nonnull align 8 dereferenceable(272) %this) #3 comdat align 2 {
entry:
  %this.addr = alloca ptr, align 8
  store ptr %this, ptr %this.addr, align 8
  %this1 = load ptr, ptr %this.addr, align 8
  %m_blueParams = getelementptr inbounds %"class.OpenColorIO_v2_4dev::GammaOpData", ptr %this1, i32 0, i32 4
  ret ptr %m_blueParams
}

; Function Attrs: mustprogress nounwind uwtable
define linkonce_odr hidden noundef nonnull align 8 dereferenceable(24) ptr @_ZNK19OpenColorIO_v2_4dev11GammaOpData14getGreenParamsEv(ptr noundef nonnull align 8 dereferenceable(272) %this) #3 comdat align 2 {
entry:
  %this.addr = alloca ptr, align 8
  store ptr %this, ptr %this.addr, align 8
  %this1 = load ptr, ptr %this.addr, align 8
  %m_greenParams = getelementptr inbounds %"class.OpenColorIO_v2_4dev::GammaOpData", ptr %this1, i32 0, i32 3
  ret ptr %m_greenParams
}

; Function Attrs: mustprogress nounwind uwtable
define linkonce_odr hidden noundef nonnull align 8 dereferenceable(8) ptr @_ZNKSt6vectorIdSaIdEEixEm(ptr noundef nonnull align 8 dereferenceable(24) %this, i64 noundef %__n) #3 comdat align 2 {
entry:
  %this.addr = alloca ptr, align 8
  %__n.addr = alloca i64, align 8
  store ptr %this, ptr %this.addr, align 8
  store i64 %__n, ptr %__n.addr, align 8
  %this1 = load ptr, ptr %this.addr, align 8
  %_M_impl = getelementptr inbounds %"struct.std::_Vector_base.9", ptr %this1, i32 0, i32 0
  %_M_start = getelementptr inbounds %"struct.std::_Vector_base<double, std::allocator<double>>::_Vector_impl_data", ptr %_M_impl, i32 0, i32 0
  %0 = load ptr, ptr %_M_start, align 8
  %1 = load i64, ptr %__n.addr, align 8
  %add.ptr = getelementptr inbounds double, ptr %0, i64 %1
  ret ptr %add.ptr
}

; Function Attrs: mustprogress nounwind uwtable
define linkonce_odr hidden noundef nonnull align 8 dereferenceable(24) ptr @_ZNK19OpenColorIO_v2_4dev11GammaOpData12getRedParamsEv(ptr noundef nonnull align 8 dereferenceable(272) %this) #3 comdat align 2 {
entry:
  %this.addr = alloca ptr, align 8
  store ptr %this, ptr %this.addr, align 8
  %this1 = load ptr, ptr %this.addr, align 8
  %m_redParams = getelementptr inbounds %"class.OpenColorIO_v2_4dev::GammaOpData", ptr %this1, i32 0, i32 2
  ret ptr %m_redParams
}

; Function Attrs: mustprogress nounwind uwtable
define linkonce_odr hidden noundef nonnull align 8 dereferenceable(272) ptr @_ZNK19OpenColorIO_v2_4dev31ExponentWithLinearTransformImpl4dataEv(ptr noundef nonnull align 8 dereferenceable(280) %this) #3 comdat align 2 {
entry:
  %this.addr = alloca ptr, align 8
  store ptr %this, ptr %this.addr, align 8
  %this1 = load ptr, ptr %this.addr, align 8
  %m_data = getelementptr inbounds %"class.OpenColorIO_v2_4dev::ExponentWithLinearTransformImpl", ptr %this1, i32 0, i32 1
  ret ptr %m_data
}

; Function Attrs: mustprogress nounwind uwtable
define hidden void @_ZNK19OpenColorIO_v2_4dev31ExponentWithLinearTransformImpl8getGammaERA4_d(ptr noundef nonnull align 8 dereferenceable(280) %this, ptr noundef nonnull align 8 dereferenceable(32) %values) unnamed_addr #3 align 2 personality ptr @__gxx_personality_v0 {
entry:
  %this.addr = alloca ptr, align 8
  %values.addr = alloca ptr, align 8
  store ptr %this, ptr %this.addr, align 8
  store ptr %values, ptr %values.addr, align 8
  %this1 = load ptr, ptr %this.addr, align 8
  %call = call noundef nonnull align 8 dereferenceable(272) ptr @_ZNK19OpenColorIO_v2_4dev31ExponentWithLinearTransformImpl4dataEv(ptr noundef nonnull align 8 dereferenceable(280) %this1) #14
  %call2 = invoke noundef nonnull align 8 dereferenceable(24) ptr @_ZNK19OpenColorIO_v2_4dev11GammaOpData12getRedParamsEv(ptr noundef nonnull align 8 dereferenceable(272) %call)
          to label %invoke.cont unwind label %terminate.lpad

invoke.cont:                                      ; preds = %entry
  %call3 = call noundef nonnull align 8 dereferenceable(8) ptr @_ZNKSt6vectorIdSaIdEEixEm(ptr noundef nonnull align 8 dereferenceable(24) %call2, i64 noundef 0) #14
  %0 = load double, ptr %call3, align 8
  %1 = load ptr, ptr %values.addr, align 8
  %arrayidx = getelementptr inbounds [4 x double], ptr %1, i64 0, i64 0
  store double %0, ptr %arrayidx, align 8
  %call4 = call noundef nonnull align 8 dereferenceable(272) ptr @_ZNK19OpenColorIO_v2_4dev31ExponentWithLinearTransformImpl4dataEv(ptr noundef nonnull align 8 dereferenceable(280) %this1) #14
  %call6 = invoke noundef nonnull align 8 dereferenceable(24) ptr @_ZNK19OpenColorIO_v2_4dev11GammaOpData14getGreenParamsEv(ptr noundef nonnull align 8 dereferenceable(272) %call4)
          to label %invoke.cont5 unwind label %terminate.lpad

invoke.cont5:                                     ; preds = %invoke.cont
  %call7 = call noundef nonnull align 8 dereferenceable(8) ptr @_ZNKSt6vectorIdSaIdEEixEm(ptr noundef nonnull align 8 dereferenceable(24) %call6, i64 noundef 0) #14
  %2 = load double, ptr %call7, align 8
  %3 = load ptr, ptr %values.addr, align 8
  %arrayidx8 = getelementptr inbounds [4 x double], ptr %3, i64 0, i64 1
  store double %2, ptr %arrayidx8, align 8
  %call9 = call noundef nonnull align 8 dereferenceable(272) ptr @_ZNK19OpenColorIO_v2_4dev31ExponentWithLinearTransformImpl4dataEv(ptr noundef nonnull align 8 dereferenceable(280) %this1) #14
  %call11 = invoke noundef nonnull align 8 dereferenceable(24) ptr @_ZNK19OpenColorIO_v2_4dev11GammaOpData13getBlueParamsEv(ptr noundef nonnull align 8 dereferenceable(272) %call9)
          to label %invoke.cont10 unwind label %terminate.lpad

invoke.cont10:                                    ; preds = %invoke.cont5
  %call12 = call noundef nonnull align 8 dereferenceable(8) ptr @_ZNKSt6vectorIdSaIdEEixEm(ptr noundef nonnull align 8 dereferenceable(24) %call11, i64 noundef 0) #14
  %4 = load double, ptr %call12, align 8
  %5 = load ptr, ptr %values.addr, align 8
  %arrayidx13 = getelementptr inbounds [4 x double], ptr %5, i64 0, i64 2
  store double %4, ptr %arrayidx13, align 8
  %call14 = call noundef nonnull align 8 dereferenceable(272) ptr @_ZNK19OpenColorIO_v2_4dev31ExponentWithLinearTransformImpl4dataEv(ptr noundef nonnull align 8 dereferenceable(280) %this1) #14
  %call16 = invoke noundef nonnull align 8 dereferenceable(24) ptr @_ZNK19OpenColorIO_v2_4dev11GammaOpData14getAlphaParamsEv(ptr noundef nonnull align 8 dereferenceable(272) %call14)
          to label %invoke.cont15 unwind label %terminate.lpad

invoke.cont15:                                    ; preds = %invoke.cont10
  %call17 = call noundef nonnull align 8 dereferenceable(8) ptr @_ZNKSt6vectorIdSaIdEEixEm(ptr noundef nonnull align 8 dereferenceable(24) %call16, i64 noundef 0) #14
  %6 = load double, ptr %call17, align 8
  %7 = load ptr, ptr %values.addr, align 8
  %arrayidx18 = getelementptr inbounds [4 x double], ptr %7, i64 0, i64 3
  store double %6, ptr %arrayidx18, align 8
  ret void

terminate.lpad:                                   ; preds = %invoke.cont10, %invoke.cont5, %invoke.cont, %entry
  %8 = landingpad { ptr, i32 }
          catch ptr null
  %9 = extractvalue { ptr, i32 } %8, 0
  call void @__clang_call_terminate(ptr %9) #15
  unreachable
}