; Function Attrs: mustprogress nofree norecurse nosync nounwind willreturn memory(read, argmem: readwrite, inaccessiblemem: none) uwtable
define hidden void @_ZNK19OpenColorIO_v2_4dev31ExponentWithLinearTransformImpl8getGammaERA4_d(ptr nocapture noundef nonnull readonly align 8 dereferenceable(280) %this, ptr nocapture noundef nonnull writeonly align 8 dereferenceable(32) %values) unnamed_addr #12 align 2 personality ptr @__gxx_personality_v0 {
entry:
  %m_redParams.i = getelementptr inbounds i8, ptr %this, i64 184
  %0 = load ptr, ptr %m_redParams.i, align 8
  %1 = load double, ptr %0, align 8
  store double %1, ptr %values, align 8
  %m_greenParams.i = getelementptr inbounds i8, ptr %this, i64 208
  %2 = load ptr, ptr %m_greenParams.i, align 8
  %3 = load double, ptr %2, align 8
  %arrayidx8 = getelementptr inbounds i8, ptr %values, i64 8
  store double %3, ptr %arrayidx8, align 8
  %m_blueParams.i = getelementptr inbounds i8, ptr %this, i64 232
  %4 = load ptr, ptr %m_blueParams.i, align 8
  %5 = load double, ptr %4, align 8
  %arrayidx13 = getelementptr inbounds i8, ptr %values, i64 16
  store double %5, ptr %arrayidx13, align 8
  %m_alphaParams.i = getelementptr inbounds i8, ptr %this, i64 256
  %6 = load ptr, ptr %m_alphaParams.i, align 8
  %7 = load double, ptr %6, align 8
  %arrayidx18 = getelementptr inbounds i8, ptr %values, i64 24
  store double %7, ptr %arrayidx18, align 8
  ret void
}